target datalayout = "e-m:e-p270:32:32-p271:32:32-p272:64:64-i64:64-i128:128-f80:128-n8:16:32:64-S128"
target triple = "x86_64-pc-linux-gnu"

%struct.lxb_encoding_single_index_t = type { [4 x i8], i32, i32 }
%struct.lxb_encoding_decode_t = type { ptr, ptr, i64, i64, ptr, i64, i32, i32, i8, i8, i32, %union.anon }
%union.anon = type { %struct.lxb_encoding_ctx_2022_jp_t }
%struct.lxb_encoding_ctx_2022_jp_t = type { i8, i8, i32, i32, i8 }

@lxb_encoding_multi_index_big5 = external constant [19782 x %struct.lxb_encoding_single_index_t], align 16

; Function Attrs: nounwind uwtable
define hidden i32 @lxb_encoding_decode_big5_single(ptr noundef %0, ptr noundef %1, ptr noundef %2) #0 {
  %4 = alloca i32, align 4
  %5 = alloca ptr, align 8
  %6 = alloca ptr, align 8
  %7 = alloca ptr, align 8
  %8 = alloca i32, align 4
  %9 = alloca i8, align 1
  %10 = alloca i8, align 1
  %11 = alloca i32, align 4
  store ptr %0, ptr %5, align 8, !tbaa !4
  store ptr %1, ptr %6, align 8, !tbaa !8
  store ptr %2, ptr %7, align 8, !tbaa !10
  call void @llvm.lifetime.start.p0(i64 4, ptr %8) #5
  call void @llvm.lifetime.start.p0(i64 1, ptr %9) #5
  call void @llvm.lifetime.start.p0(i64 1, ptr %10) #5
  %12 = load ptr, ptr %5, align 8, !tbaa !4
  %13 = getelementptr inbounds nuw %struct.lxb_encoding_decode_t, ptr %12, i32 0, i32 11
  %14 = load i32, ptr %13, align 8, !tbaa !27
  %15 = icmp ne i32 %14, 0
  br i1 %15, label %16, label %44

16:                                               ; preds = %3
  %17 = load ptr, ptr %5, align 8, !tbaa !4
  %18 = getelementptr inbounds nuw %struct.lxb_encoding_decode_t, ptr %17, i32 0, i32 7
  %19 = load i32, ptr %18, align 4, !tbaa !30
  %20 = icmp ne i32 %19, 0
  br i1 %20, label %21, label %37

21:                                               ; preds = %16
  %22 = load ptr, ptr %6, align 8, !tbaa !8
  %23 = load ptr, ptr %22, align 8, !tbaa !10
  %24 = getelementptr inbounds nuw i8, ptr %23, i32 1
  store ptr %24, ptr %22, align 8, !tbaa !10
  %25 = load ptr, ptr %5, align 8, !tbaa !4
  %26 = getelementptr inbounds nuw %struct.lxb_encoding_decode_t, ptr %25, i32 0, i32 11
  store i32 0, ptr %26, align 8, !tbaa !27
  %27 = load ptr, ptr %5, align 8, !tbaa !4
  %28 = getelementptr inbounds nuw %struct.lxb_encoding_decode_t, ptr %27, i32 0, i32 7
  %29 = load i32, ptr %28, align 4, !tbaa !30
  %30 = load ptr, ptr %5, align 8, !tbaa !4
  %31 = getelementptr inbounds nuw %struct.lxb_encoding_decode_t, ptr %30, i32 0, i32 6
  store i32 %29, ptr %31, align 8, !tbaa !29
  %32 = load ptr, ptr %5, align 8, !tbaa !4
  %33 = getelementptr inbounds nuw %struct.lxb_encoding_decode_t, ptr %32, i32 0, i32 7
  store i32 0, ptr %33, align 4, !tbaa !30
  %34 = load ptr, ptr %5, align 8, !tbaa !4
  %35 = getelementptr inbounds nuw %struct.lxb_encoding_decode_t, ptr %34, i32 0, i32 6
  %36 = load i32, ptr %35, align 8, !tbaa !29
  store i32 %36, ptr %4, align 4
  store i32 1, ptr %11, align 4
  br label %168

37:                                               ; preds = %16
  %38 = load ptr, ptr %5, align 8, !tbaa !4
  %39 = getelementptr inbounds nuw %struct.lxb_encoding_decode_t, ptr %38, i32 0, i32 11
  %40 = load i32, ptr %39, align 8, !tbaa !27
  %41 = trunc i32 %40 to i8
  store i8 %41, ptr %9, align 1, !tbaa !27
  %42 = load ptr, ptr %5, align 8, !tbaa !4
  %43 = getelementptr inbounds nuw %struct.lxb_encoding_decode_t, ptr %42, i32 0, i32 11
  store i32 0, ptr %43, align 8, !tbaa !27
  br label %72

44:                                               ; preds = %3
  %45 = load ptr, ptr %6, align 8, !tbaa !8
  %46 = load ptr, ptr %45, align 8, !tbaa !10
  %47 = getelementptr inbounds nuw i8, ptr %46, i32 1
  store ptr %47, ptr %45, align 8, !tbaa !10
  %48 = load i8, ptr %46, align 1, !tbaa !27
  store i8 %48, ptr %9, align 1, !tbaa !27
  %49 = load i8, ptr %9, align 1, !tbaa !27
  %50 = zext i8 %49 to i32
  %51 = icmp slt i32 %50, 128
  br i1 %51, label %52, label %55

52:                                               ; preds = %44
  %53 = load i8, ptr %9, align 1, !tbaa !27
  %54 = zext i8 %53 to i32
  store i32 %54, ptr %4, align 4
  store i32 1, ptr %11, align 4
  br label %168

55:                                               ; preds = %44
  %56 = load i8, ptr %9, align 1, !tbaa !27
  %57 = zext i8 %56 to i32
  %58 = sub nsw i32 %57, 129
  %59 = icmp ugt i32 %58, 125
  br i1 %59, label %60, label %61

60:                                               ; preds = %55
  store i32 2097151, ptr %4, align 4
  store i32 1, ptr %11, align 4
  br label %168

61:                                               ; preds = %55
  %62 = load ptr, ptr %6, align 8, !tbaa !8
  %63 = load ptr, ptr %62, align 8, !tbaa !10
  %64 = load ptr, ptr %7, align 8, !tbaa !10
  %65 = icmp uge ptr %63, %64
  br i1 %65, label %66, label %71

66:                                               ; preds = %61
  %67 = load i8, ptr %9, align 1, !tbaa !27
  %68 = zext i8 %67 to i32
  %69 = load ptr, ptr %5, align 8, !tbaa !4
  %70 = getelementptr inbounds nuw %struct.lxb_encoding_decode_t, ptr %69, i32 0, i32 11
  store i32 %68, ptr %70, align 8, !tbaa !27
  store i32 3145727, ptr %4, align 4
  store i32 1, ptr %11, align 4
  br label %168

71:                                               ; preds = %61
  br label %72

72:                                               ; preds = %71, %37
  store i32 0, ptr %8, align 4, !tbaa !28
  %73 = load ptr, ptr %6, align 8, !tbaa !8
  %74 = load ptr, ptr %73, align 8, !tbaa !10
  %75 = load i8, ptr %74, align 1, !tbaa !27
  store i8 %75, ptr %10, align 1, !tbaa !27
  %76 = load i8, ptr %10, align 1, !tbaa !27
  %77 = zext i8 %76 to i32
  %78 = sub nsw i32 %77, 64
  %79 = icmp ule i32 %78, 62
  br i1 %79, label %85, label %80

80:                                               ; preds = %72
  %81 = load i8, ptr %10, align 1, !tbaa !27
  %82 = zext i8 %81 to i32
  %83 = sub nsw i32 %82, 161
  %84 = icmp ule i32 %83, 93
  br i1 %84, label %85, label %108

85:                                               ; preds = %80, %72
  %86 = load i8, ptr %10, align 1, !tbaa !27
  %87 = zext i8 %86 to i32
  %88 = icmp slt i32 %87, 127
  br i1 %88, label %89, label %98

89:                                               ; preds = %85
  %90 = load i8, ptr %9, align 1, !tbaa !27
  %91 = zext i8 %90 to i32
  %92 = sub nsw i32 %91, 129
  %93 = mul nsw i32 %92, 157
  %94 = load i8, ptr %10, align 1, !tbaa !27
  %95 = zext i8 %94 to i32
  %96 = sub nsw i32 %95, 64
  %97 = add nsw i32 %93, %96
  store i32 %97, ptr %8, align 4, !tbaa !28
  br label %107

98:                                               ; preds = %85
  %99 = load i8, ptr %9, align 1, !tbaa !27
  %100 = zext i8 %99 to i32
  %101 = sub nsw i32 %100, 129
  %102 = mul nsw i32 %101, 157
  %103 = load i8, ptr %10, align 1, !tbaa !27
  %104 = zext i8 %103 to i32
  %105 = sub nsw i32 %104, 98
  %106 = add nsw i32 %102, %105
  store i32 %106, ptr %8, align 4, !tbaa !28
  br label %107

107:                                              ; preds = %98, %89
  br label %108

108:                                              ; preds = %107, %80
  %109 = load i32, ptr %8, align 4, !tbaa !28
  switch i32 %109, label %139 [
    i32 1133, label %110
    i32 1135, label %117
    i32 1164, label %124
    i32 1166, label %131
    i32 0, label %138
  ]

110:                                              ; preds = %108
  %111 = load i8, ptr %9, align 1, !tbaa !27
  %112 = zext i8 %111 to i32
  %113 = load ptr, ptr %5, align 8, !tbaa !4
  %114 = getelementptr inbounds nuw %struct.lxb_encoding_decode_t, ptr %113, i32 0, i32 11
  store i32 %112, ptr %114, align 8, !tbaa !27
  %115 = load ptr, ptr %5, align 8, !tbaa !4
  %116 = getelementptr inbounds nuw %struct.lxb_encoding_decode_t, ptr %115, i32 0, i32 7
  store i32 772, ptr %116, align 4, !tbaa !30
  store i32 202, ptr %4, align 4
  store i32 1, ptr %11, align 4
  br label %168

117:                                              ; preds = %108
  %118 = load i8, ptr %9, align 1, !tbaa !27
  %119 = zext i8 %118 to i32
  %120 = load ptr, ptr %5, align 8, !tbaa !4
  %121 = getelementptr inbounds nuw %struct.lxb_encoding_decode_t, ptr %120, i32 0, i32 11
  store i32 %119, ptr %121, align 8, !tbaa !27
  %122 = load ptr, ptr %5, align 8, !tbaa !4
  %123 = getelementptr inbounds nuw %struct.lxb_encoding_decode_t, ptr %122, i32 0, i32 7
  store i32 780, ptr %123, align 4, !tbaa !30
  store i32 202, ptr %4, align 4
  store i32 1, ptr %11, align 4
  br label %168

124:                                              ; preds = %108
  %125 = load i8, ptr %9, align 1, !tbaa !27
  %126 = zext i8 %125 to i32
  %127 = load ptr, ptr %5, align 8, !tbaa !4
  %128 = getelementptr inbounds nuw %struct.lxb_encoding_decode_t, ptr %127, i32 0, i32 11
  store i32 %126, ptr %128, align 8, !tbaa !27
  %129 = load ptr, ptr %5, align 8, !tbaa !4
  %130 = getelementptr inbounds nuw %struct.lxb_encoding_decode_t, ptr %129, i32 0, i32 7
  store i32 772, ptr %130, align 4, !tbaa !30
  store i32 234, ptr %4, align 4
  store i32 1, ptr %11, align 4
  br label %168

131:                                              ; preds = %108
  %132 = load i8, ptr %9, align 1, !tbaa !27
  %133 = zext i8 %132 to i32
  %134 = load ptr, ptr %5, align 8, !tbaa !4
  %135 = getelementptr inbounds nuw %struct.lxb_encoding_decode_t, ptr %134, i32 0, i32 11
  store i32 %133, ptr %135, align 8, !tbaa !27
  %136 = load ptr, ptr %5, align 8, !tbaa !4
  %137 = getelementptr inbounds nuw %struct.lxb_encoding_decode_t, ptr %136, i32 0, i32 7
  store i32 780, ptr %137, align 4, !tbaa !30
  store i32 234, ptr %4, align 4
  store i32 1, ptr %11, align 4
  br label %168

138:                                              ; preds = %108
  br label %159

139:                                              ; preds = %108
  %140 = load i32, ptr %8, align 4, !tbaa !28
  %141 = zext i32 %140 to i64
  %142 = getelementptr inbounds nuw [19782 x %struct.lxb_encoding_single_index_t], ptr @lxb_encoding_multi_index_big5, i64 0, i64 %141
  %143 = getelementptr inbounds nuw %struct.lxb_encoding_single_index_t, ptr %142, i32 0, i32 2
  %144 = load i32, ptr %143, align 4, !tbaa !31
  %145 = load ptr, ptr %5, align 8, !tbaa !4
  %146 = getelementptr inbounds nuw %struct.lxb_encoding_decode_t, ptr %145, i32 0, i32 6
  store i32 %144, ptr %146, align 8, !tbaa !29
  %147 = load ptr, ptr %5, align 8, !tbaa !4
  %148 = getelementptr inbounds nuw %struct.lxb_encoding_decode_t, ptr %147, i32 0, i32 6
  %149 = load i32, ptr %148, align 8, !tbaa !29
  %150 = icmp eq i32 %149, 2097151
  br i1 %150, label %151, label %152

151:                                              ; preds = %139
  br label %159

152:                                              ; preds = %139
  %153 = load ptr, ptr %6, align 8, !tbaa !8
  %154 = load ptr, ptr %153, align 8, !tbaa !10
  %155 = getelementptr inbounds nuw i8, ptr %154, i32 1
  store ptr %155, ptr %153, align 8, !tbaa !10
  %156 = load ptr, ptr %5, align 8, !tbaa !4
  %157 = getelementptr inbounds nuw %struct.lxb_encoding_decode_t, ptr %156, i32 0, i32 6
  %158 = load i32, ptr %157, align 8, !tbaa !29
  store i32 %158, ptr %4, align 4
  store i32 1, ptr %11, align 4
  br label %168

159:                                              ; preds = %151, %138
  %160 = load i8, ptr %10, align 1, !tbaa !27
  %161 = zext i8 %160 to i32
  %162 = icmp sge i32 %161, 128
  br i1 %162, label %163, label %167

163:                                              ; preds = %159
  %164 = load ptr, ptr %6, align 8, !tbaa !8
  %165 = load ptr, ptr %164, align 8, !tbaa !10
  %166 = getelementptr inbounds nuw i8, ptr %165, i32 1
  store ptr %166, ptr %164, align 8, !tbaa !10
  br label %167

167:                                              ; preds = %163, %159
  store i32 2097151, ptr %4, align 4
  store i32 1, ptr %11, align 4
  br label %168

168:                                              ; preds = %167, %152, %131, %124, %117, %110, %66, %60, %52, %21
  call void @llvm.lifetime.end.p0(i64 1, ptr %10) #5
  call void @llvm.lifetime.end.p0(i64 1, ptr %9) #5
  call void @llvm.lifetime.end.p0(i64 4, ptr %8) #5
  %169 = load i32, ptr %4, align 4
  ret i32 %169
}