; Function Attrs: mustprogress nofree norecurse nosync nounwind willreturn memory(read, argmem: readwrite, inaccessiblemem: none) uwtable
define hidden i32 @lxb_encoding_decode_big5_single(ptr noundef captures(none) %0, ptr noundef captures(none) %1, ptr noundef readnone captures(address) %2) local_unnamed_addr #7 {
  %4 = getelementptr inbounds nuw i8, ptr %0, i64 64
  %5 = load i32, ptr %4, align 8, !tbaa !24
  %.not = icmp eq i32 %5, 0
  br i1 %.not, label %15, label %6

6:                                                ; preds = %3
  %7 = getelementptr inbounds nuw i8, ptr %0, i64 52
  %8 = load i32, ptr %7, align 4, !tbaa !27
  %.not52 = icmp eq i32 %8, 0
  br i1 %.not52, label %13, label %9

9:                                                ; preds = %6
  %10 = load ptr, ptr %1, align 8, !tbaa !4
  %11 = getelementptr inbounds nuw i8, ptr %10, i64 1
  store ptr %11, ptr %1, align 8, !tbaa !4
  store i32 0, ptr %4, align 8, !tbaa !24
  %12 = getelementptr inbounds nuw i8, ptr %0, i64 48
  store i32 %8, ptr %12, align 8, !tbaa !25
  store i32 0, ptr %7, align 4, !tbaa !27
  br label %63

13:                                               ; preds = %6
  %14 = trunc i32 %5 to i8
  store i32 0, ptr %4, align 8, !tbaa !24
  %.pre = load ptr, ptr %1, align 8, !tbaa !4
  br label %26

15:                                               ; preds = %3
  %16 = load ptr, ptr %1, align 8, !tbaa !4
  %17 = getelementptr inbounds nuw i8, ptr %16, i64 1
  store ptr %17, ptr %1, align 8, !tbaa !4
  %18 = load i8, ptr %16, align 1, !tbaa !24
  %19 = zext i8 %18 to i32
  %20 = icmp sgt i8 %18, -1
  br i1 %20, label %63, label %21

21:                                               ; preds = %15
  %22 = add nsw i32 %19, -255
  %23 = icmp ult i32 %22, -126
  br i1 %23, label %63, label %24

24:                                               ; preds = %21
  %.not51 = icmp ult ptr %17, %2
  br i1 %.not51, label %26, label %25

25:                                               ; preds = %24
  store i32 %19, ptr %4, align 8, !tbaa !24
  br label %63

26:                                               ; preds = %24, %13
  %27 = phi ptr [ %.pre, %13 ], [ %17, %24 ]
  %.046 = phi i8 [ %14, %13 ], [ %18, %24 ]
  %28 = load i8, ptr %27, align 1, !tbaa !24
  %29 = zext i8 %28 to i32
  %30 = add nsw i32 %29, -64
  %31 = icmp ult i32 %30, 63
  %32 = add i8 %28, 95
  %33 = icmp ult i8 %32, 94
  %or.cond = or i1 %33, %31
  br i1 %or.cond, label %34, label %.thread

34:                                               ; preds = %26
  %35 = icmp ult i8 %28, 127
  %36 = zext i8 %.046 to i32
  %37 = mul nuw nsw i32 %36, 157
  %. = select i1 %35, i32 -20253, i32 -20351
  %.57 = select i1 %35, i32 %30, i32 %29
  %38 = add nsw i32 %37, %.
  %39 = add nsw i32 %38, %.57
  switch i32 %39, label %52 [
    i32 1133, label %40
    i32 1135, label %43
    i32 1164, label %46
    i32 1166, label %49
    i32 0, label %.thread
  ]

40:                                               ; preds = %34
  %41 = zext i8 %.046 to i32
  store i32 %41, ptr %4, align 8, !tbaa !24
  %42 = getelementptr inbounds nuw i8, ptr %0, i64 52
  store i32 772, ptr %42, align 4, !tbaa !27
  br label %63

43:                                               ; preds = %34
  %44 = zext i8 %.046 to i32
  store i32 %44, ptr %4, align 8, !tbaa !24
  %45 = getelementptr inbounds nuw i8, ptr %0, i64 52
  store i32 780, ptr %45, align 4, !tbaa !27
  br label %63

46:                                               ; preds = %34
  %47 = zext i8 %.046 to i32
  store i32 %47, ptr %4, align 8, !tbaa !24
  %48 = getelementptr inbounds nuw i8, ptr %0, i64 52
  store i32 772, ptr %48, align 4, !tbaa !27
  br label %63

49:                                               ; preds = %34
  %50 = zext i8 %.046 to i32
  store i32 %50, ptr %4, align 8, !tbaa !24
  %51 = getelementptr inbounds nuw i8, ptr %0, i64 52
  store i32 780, ptr %51, align 4, !tbaa !27
  br label %63

52:                                               ; preds = %34
  %53 = zext i32 %39 to i64
  %54 = getelementptr inbounds nuw [19782 x %struct.lxb_encoding_single_index_t], ptr @lxb_encoding_multi_index_big5, i64 0, i64 %53, i32 2
  %55 = load i32, ptr %54, align 4, !tbaa !28
  %56 = getelementptr inbounds nuw i8, ptr %0, i64 48
  store i32 %55, ptr %56, align 8, !tbaa !25
  %57 = icmp eq i32 %55, 2097151
  br i1 %57, label %.thread, label %58

58:                                               ; preds = %52
  %59 = getelementptr inbounds nuw i8, ptr %27, i64 1
  store ptr %59, ptr %1, align 8, !tbaa !4
  br label %63

.thread:                                          ; preds = %26, %52, %34
  %60 = icmp slt i8 %28, 0
  br i1 %60, label %61, label %63

61:                                               ; preds = %.thread
  %62 = getelementptr inbounds nuw i8, ptr %27, i64 1
  store ptr %62, ptr %1, align 8, !tbaa !4
  br label %63

63:                                               ; preds = %.thread, %61, %21, %15, %58, %49, %46, %43, %40, %25, %9
  %.0 = phi i32 [ %8, %9 ], [ %55, %58 ], [ 234, %49 ], [ 234, %46 ], [ 202, %43 ], [ 202, %40 ], [ 3145727, %25 ], [ %19, %15 ], [ 2097151, %21 ], [ 2097151, %61 ], [ 2097151, %.thread ]
  ret i32 %.0
}